; Function Attrs: nounwind uwtable
define noalias noundef ptr @Gia_GenCreateMuxes(ptr noundef readonly captures(none) %0, ptr noundef %1, ptr noundef readonly captures(none) %2, i32 noundef %3, i32 noundef %4, ptr noundef %5, i32 noundef %6) local_unnamed_addr #0 {
  %8 = alloca [16 x i32], align 16
  %9 = tail call noalias dereferenceable_or_null(16) ptr @malloc(i64 noundef 16) #28
  %10 = add i32 %3, -1
  %or.cond.i = icmp ult i32 %10, 15
  %spec.store.select.i = select i1 %or.cond.i, i32 16, i32 %3
  %11 = getelementptr inbounds nuw i8, ptr %9, i64 4
  store i32 0, ptr %11, align 4, !tbaa !11
  store i32 %spec.store.select.i, ptr %9, align 8, !tbaa !3
  %.not.i = icmp eq i32 %spec.store.select.i, 0
  br i1 %.not.i, label %Vec_IntAlloc.exit, label %12

12:                                               ; preds = %7
  %13 = sext i32 %spec.store.select.i to i64
  %14 = shl nsw i64 %13, 2
  %15 = tail call noalias ptr @malloc(i64 noundef %14) #28
  br label %Vec_IntAlloc.exit

Vec_IntAlloc.exit:                                ; preds = %7, %12
  %16 = phi ptr [ %15, %12 ], [ null, %7 ]
  %17 = getelementptr inbounds nuw i8, ptr %9, i64 8
  store ptr %16, ptr %17, align 8, !tbaa !10
  call void @llvm.lifetime.start.p0(i64 64, ptr nonnull %8) #29
  %18 = icmp sgt i32 %3, 0
  br i1 %18, label %.preheader.lr.ph, label %._crit_edge34

.preheader.lr.ph:                                 ; preds = %Vec_IntAlloc.exit
  %19 = icmp sgt i32 %4, 0
  %20 = getelementptr i8, ptr %2, i64 8
  %.not = icmp eq i32 %6, 0
  %21 = getelementptr i8, ptr %0, i64 16
  %22 = getelementptr i8, ptr %0, i64 72
  %23 = getelementptr i8, ptr %0, i64 32
  %24 = getelementptr i8, ptr %0, i64 64
  %25 = zext i32 %4 to i64
  %wide.trip.count45 = zext nneg i32 %3 to i64
  br label %.preheader

.preheader:                                       ; preds = %.preheader.lr.ph, %Vec_IntPush.exit
  %26 = phi ptr [ %16, %.preheader.lr.ph ], [ %.pre.i48, %Vec_IntPush.exit ]
  %indvars.iv42 = phi i64 [ 0, %.preheader.lr.ph ], [ %indvars.iv.next43, %Vec_IntPush.exit ]
  br i1 %19, label %.lr.ph, label %._crit_edge

.lr.ph:                                           ; preds = %.preheader
  %27 = mul nuw nsw i64 %indvars.iv42, %25
  %.val = load ptr, ptr %20, align 8, !tbaa !10
  %.val.i27.us = load i32, ptr %21, align 8, !tbaa !16
  %.val3.i30.us = load ptr, ptr %23, align 8, !tbaa !35
  %invariant.gep50 = getelementptr inbounds nuw i32, ptr %.val, i64 %27
  br i1 %.not, label %.lr.ph.split.us, label %.lr.ph.split

.lr.ph.split.us:                                  ; preds = %.lr.ph
  %.val2.i28.us = load ptr, ptr %24, align 8, !tbaa !36
  %28 = getelementptr i8, ptr %.val2.i28.us, i64 4
  %29 = getelementptr i8, ptr %.val2.i28.us, i64 8
  %.val4.val.i31.us = load ptr, ptr %29, align 8, !tbaa !10
  br label %30

30:                                               ; preds = %30, %.lr.ph.split.us
  %indvars.iv37 = phi i64 [ %indvars.iv.next38, %30 ], [ 0, %.lr.ph.split.us ]
  %gep51 = getelementptr inbounds nuw i32, ptr %invariant.gep50, i64 %indvars.iv37
  %31 = load i32, ptr %gep51, align 4, !tbaa !12
  %.val2.val.i29.us = load i32, ptr %28, align 4, !tbaa !11
  %32 = sub i32 %31, %.val.i27.us
  %33 = add i32 %32, %.val2.val.i29.us
  %34 = sext i32 %33 to i64
  %35 = getelementptr inbounds i32, ptr %.val4.val.i31.us, i64 %34
  %36 = load i32, ptr %35, align 4, !tbaa !12
  %37 = sext i32 %36 to i64
  %38 = getelementptr inbounds %struct.Gia_Obj_t_, ptr %.val3.i30.us, i64 %37, i32 1
  %39 = load i32, ptr %38, align 4, !tbaa !37
  %40 = getelementptr inbounds nuw [16 x i32], ptr %8, i64 0, i64 %indvars.iv37
  store i32 %39, ptr %40, align 4, !tbaa !12
  %indvars.iv.next38 = add nuw nsw i64 %indvars.iv37, 1
  %exitcond41.not = icmp eq i64 %indvars.iv.next38, %25
  br i1 %exitcond41.not, label %._crit_edge, label %30, !llvm.loop !39

.lr.ph.split:                                     ; preds = %.lr.ph
  %.val2.i = load ptr, ptr %22, align 8, !tbaa !40
  %41 = getelementptr i8, ptr %.val2.i, i64 4
  %42 = getelementptr i8, ptr %.val2.i, i64 8
  %.val4.val.i = load ptr, ptr %42, align 8, !tbaa !10
  br label %43

43:                                               ; preds = %.lr.ph.split, %43
  %indvars.iv = phi i64 [ 0, %.lr.ph.split ], [ %indvars.iv.next, %43 ]
  %gep = getelementptr inbounds nuw i32, ptr %invariant.gep50, i64 %indvars.iv
  %44 = load i32, ptr %gep, align 4, !tbaa !12
  %.val2.val.i = load i32, ptr %41, align 4, !tbaa !11
  %45 = sub i32 %44, %.val.i27.us
  %46 = add i32 %45, %.val2.val.i
  %47 = sext i32 %46 to i64
  %48 = getelementptr inbounds i32, ptr %.val4.val.i, i64 %47
  %49 = load i32, ptr %48, align 4, !tbaa !12
  %50 = sext i32 %49 to i64
  %51 = getelementptr inbounds %struct.Gia_Obj_t_, ptr %.val3.i30.us, i64 %50, i32 1
  %52 = load i32, ptr %51, align 4, !tbaa !37
  %53 = getelementptr inbounds nuw [16 x i32], ptr %8, i64 0, i64 %indvars.iv
  store i32 %52, ptr %53, align 4, !tbaa !12
  %indvars.iv.next = add nuw nsw i64 %indvars.iv, 1
  %exitcond.not = icmp eq i64 %indvars.iv.next, %25
  br i1 %exitcond.not, label %._crit_edge, label %43, !llvm.loop !39

._crit_edge:                                      ; preds = %43, %30, %.preheader
  %54 = trunc nuw nsw i64 %indvars.iv42 to i32
  %55 = shl i32 %54, %4
  %56 = call i32 @Gia_GenCreateMux_rec(ptr noundef %1, ptr noundef nonnull %8, i32 noundef %4, ptr noundef %5, i32 noundef %55)
  %57 = load i32, ptr %11, align 4, !tbaa !11
  %58 = load i32, ptr %9, align 8, !tbaa !3
  %59 = icmp eq i32 %57, %58
  br i1 %59, label %60, label %Vec_IntPush.exit

60:                                               ; preds = %._crit_edge
  %61 = icmp slt i32 %57, 16
  br i1 %61, label %62, label %67

62:                                               ; preds = %60
  %.not9.i.i = icmp eq ptr %26, null
  br i1 %.not9.i.i, label %65, label %63

63:                                               ; preds = %62
  %64 = call dereferenceable_or_null(64) ptr @realloc(ptr noundef nonnull %26, i64 noundef 64) #30
  br label %Vec_IntPush.exit.sink.split

65:                                               ; preds = %62
  %66 = call noalias dereferenceable_or_null(64) ptr @malloc(i64 noundef 64) #28
  br label %Vec_IntPush.exit.sink.split

67:                                               ; preds = %60
  %68 = shl nuw nsw i32 %57, 1
  %.not9.i9.i = icmp eq ptr %26, null
  %69 = zext nneg i32 %68 to i64
  %70 = shl nuw nsw i64 %69, 2
  br i1 %.not9.i9.i, label %73, label %71

71:                                               ; preds = %67
  %72 = call ptr @realloc(ptr noundef nonnull %26, i64 noundef %70) #30
  br label %Vec_IntPush.exit.sink.split

73:                                               ; preds = %67
  %74 = call noalias ptr @malloc(i64 noundef %70) #28
  br label %Vec_IntPush.exit.sink.split

Vec_IntPush.exit.sink.split:                      ; preds = %71, %73, %63, %65
  %.sink52 = phi ptr [ %64, %63 ], [ %66, %65 ], [ %72, %71 ], [ %74, %73 ]
  %.sink = phi i32 [ 16, %63 ], [ 16, %65 ], [ %68, %71 ], [ %68, %73 ]
  store ptr %.sink52, ptr %17, align 8, !tbaa !10
  store i32 %.sink, ptr %9, align 8, !tbaa !3
  br label %Vec_IntPush.exit

Vec_IntPush.exit:                                 ; preds = %Vec_IntPush.exit.sink.split, %._crit_edge
  %.pre.i48 = phi ptr [ %26, %._crit_edge ], [ %.sink52, %Vec_IntPush.exit.sink.split ]
  %75 = add nsw i32 %57, 1
  store i32 %75, ptr %11, align 4, !tbaa !11
  %76 = sext i32 %57 to i64
  %77 = getelementptr inbounds i32, ptr %.pre.i48, i64 %76
  store i32 %56, ptr %77, align 4, !tbaa !12
  %indvars.iv.next43 = add nuw nsw i64 %indvars.iv42, 1
  %exitcond46.not = icmp eq i64 %indvars.iv.next43, %wide.trip.count45
  br i1 %exitcond46.not, label %._crit_edge34, label %.preheader, !llvm.loop !41

._crit_edge34:                                    ; preds = %Vec_IntPush.exit, %Vec_IntAlloc.exit
  call void @llvm.lifetime.end.p0(i64 64, ptr nonnull %8) #29
  ret ptr %9
}